; Function Attrs: mustprogress uwtable
define void @_ZN32pxrInternal_v0_24__pxrReserved__10TsKeyFrameC2ERKdRKNS_7VtValueES5_NS_10TsKnotTypeES5_S5_dd(ptr noundef nonnull align 8 dereferenceable(72) %0, ptr nocapture noundef nonnull readonly align 8 dereferenceable(8) %1, ptr noundef nonnull align 8 dereferenceable(16) %2, ptr noundef nonnull align 8 dereferenceable(16) %3, i32 noundef %4, ptr noundef nonnull align 8 dereferenceable(16) %5, ptr noundef nonnull align 8 dereferenceable(16) %6, double noundef %7, double noundef %8) unnamed_addr #0 align 2 personality ptr @__gxx_personality_v0 {
  %10 = alloca %"class.pxrInternal_v0_24__pxrReserved__::VtValue", align 8
  %11 = alloca %"class.pxrInternal_v0_24__pxrReserved__::VtValue", align 8
  %12 = load atomic i64, ptr @_ZN32pxrInternal_v0_24__pxrReserved__11TfSingletonINS_14TsTypeRegistryEE9_instanceE seq_cst, align 8
  %.0.i.i.i = inttoptr i64 %12 to ptr
  %.not.i.i = icmp eq i64 %12, 0
  br i1 %.not.i.i, label %13, label %_ZN32pxrInternal_v0_24__pxrReserved__14TsTypeRegistry11GetInstanceEv.exit

13:                                               ; preds = %9
  %14 = tail call noundef ptr @_ZN32pxrInternal_v0_24__pxrReserved__11TfSingletonINS_14TsTypeRegistryEE15_CreateInstanceERSt6atomicIPS1_E(ptr noundef nonnull align 8 dereferenceable(8) @_ZN32pxrInternal_v0_24__pxrReserved__11TfSingletonINS_14TsTypeRegistryEE9_instanceE)
  br label %_ZN32pxrInternal_v0_24__pxrReserved__14TsTypeRegistry11GetInstanceEv.exit

_ZN32pxrInternal_v0_24__pxrReserved__14TsTypeRegistry11GetInstanceEv.exit: ; preds = %9, %13
  %.0.i.i = phi ptr [ %.0.i.i.i, %9 ], [ %14, %13 ]
  tail call void @_ZN32pxrInternal_v0_24__pxrReserved__14TsTypeRegistry20InitializeDataHolderEPNS_24Ts_PolymorphicDataHolderERKNS_7VtValueE(ptr noundef nonnull align 8 dereferenceable(64) %.0.i.i, ptr noundef nonnull %0, ptr noundef nonnull align 8 dereferenceable(16) %3)
  %15 = load ptr, ptr %0, align 8
  %16 = getelementptr inbounds i8, ptr %15, i64 112
  %17 = load ptr, ptr %16, align 8
  tail call void %17(ptr noundef nonnull align 8 dereferenceable(16) %0, i1 noundef zeroext true)
  %18 = getelementptr inbounds nuw i8, ptr %11, i64 8
  store ptr null, ptr %18, align 8
  call void @_ZN32pxrInternal_v0_24__pxrReserved__7VtValue5_CopyERKS0_RS0_(ptr noundef nonnull align 8 dereferenceable(16) %2, ptr noundef nonnull align 8 dereferenceable(16) %11)
  call void @llvm.lifetime.start.p0(i64 16, ptr nonnull %10)
  %19 = getelementptr inbounds nuw i8, ptr %10, i64 8
  store ptr null, ptr %19, align 8
  invoke void @_ZN32pxrInternal_v0_24__pxrReserved__7VtValue5_CopyERKS0_RS0_(ptr noundef nonnull align 8 dereferenceable(16) %11, ptr noundef nonnull align 8 dereferenceable(16) %10)
          to label %.noexc unwind label %51

.noexc:                                           ; preds = %_ZN32pxrInternal_v0_24__pxrReserved__14TsTypeRegistry11GetInstanceEv.exit
  %20 = load ptr, ptr %0, align 8
  %21 = getelementptr inbounds i8, ptr %20, i64 136
  %22 = load ptr, ptr %21, align 8
  invoke void %22(ptr noundef nonnull align 8 dereferenceable(16) %0, ptr noundef nonnull %10)
          to label %23 unwind label %36

23:                                               ; preds = %.noexc
  %24 = load ptr, ptr %19, align 8
  %25 = ptrtoint ptr %24 to i64
  %.not.i.i.i = icmp eq ptr %24, null
  %26 = and i64 %25, 3
  %27 = icmp eq i64 %26, 3
  %or.cond.i.i.i = or i1 %.not.i.i.i, %27
  br i1 %or.cond.i.i.i, label %38, label %28

28:                                               ; preds = %23
  %29 = and i64 %25, -8
  %30 = inttoptr i64 %29 to ptr
  %31 = getelementptr inbounds nuw i8, ptr %30, i64 32
  %32 = load ptr, ptr %31, align 8
  invoke void %32(ptr noundef nonnull align 8 dereferenceable(8) %10)
          to label %38 unwind label %33

33:                                               ; preds = %28
  %34 = landingpad { ptr, i32 }
          catch ptr null
  %35 = extractvalue { ptr, i32 } %34, 0
  call void @__clang_call_terminate(ptr %35) #19
  unreachable

36:                                               ; preds = %.noexc
  %37 = landingpad { ptr, i32 }
          cleanup
  call void @_ZN32pxrInternal_v0_24__pxrReserved__7VtValueD2Ev(ptr noundef nonnull align 8 dereferenceable(16) %10) #20
  br label %.body

38:                                               ; preds = %28, %23
  call void @llvm.lifetime.end.p0(i64 16, ptr nonnull %10)
  %39 = load ptr, ptr %18, align 8
  %40 = ptrtoint ptr %39 to i64
  %.not.i.i10 = icmp eq ptr %39, null
  %41 = and i64 %40, 3
  %42 = icmp eq i64 %41, 3
  %or.cond.i.i = or i1 %.not.i.i10, %42
  br i1 %or.cond.i.i, label %_ZN32pxrInternal_v0_24__pxrReserved__7VtValueD2Ev.exit, label %43

43:                                               ; preds = %38
  %44 = and i64 %40, -8
  %45 = inttoptr i64 %44 to ptr
  %46 = getelementptr inbounds nuw i8, ptr %45, i64 32
  %47 = load ptr, ptr %46, align 8
  invoke void %47(ptr noundef nonnull align 8 dereferenceable(8) %11)
          to label %_ZN32pxrInternal_v0_24__pxrReserved__7VtValueD2Ev.exit unwind label %48

48:                                               ; preds = %43
  %49 = landingpad { ptr, i32 }
          catch ptr null
  %50 = extractvalue { ptr, i32 } %49, 0
  call void @__clang_call_terminate(ptr %50) #19
  unreachable

_ZN32pxrInternal_v0_24__pxrReserved__7VtValueD2Ev.exit: ; preds = %38, %43
  store ptr null, ptr %18, align 8
  call void @_ZN32pxrInternal_v0_24__pxrReserved__10TsKeyFrame11_InitializeERKdNS_10TsKnotTypeERKNS_7VtValueES6_dd(ptr noundef nonnull align 8 dereferenceable(72) %0, ptr noundef nonnull align 8 dereferenceable(8) %1, i32 noundef %4, ptr noundef nonnull align 8 dereferenceable(16) %5, ptr noundef nonnull align 8 dereferenceable(16) %6, double noundef %7, double noundef %8)
  ret void

51:                                               ; preds = %_ZN32pxrInternal_v0_24__pxrReserved__14TsTypeRegistry11GetInstanceEv.exit
  %52 = landingpad { ptr, i32 }
          cleanup
  br label %.body

.body:                                            ; preds = %36, %51
  %eh.lpad-body = phi { ptr, i32 } [ %52, %51 ], [ %37, %36 ]
  call void @_ZN32pxrInternal_v0_24__pxrReserved__7VtValueD2Ev(ptr noundef nonnull align 8 dereferenceable(16) %11) #20
  resume { ptr, i32 } %eh.lpad-body
}